target datalayout = "e-m:e-p270:32:32-p271:32:32-p272:64:64-i64:64-i128:128-f80:128-n8:16:32:64-S128"
target triple = "x86_64-pc-linux-gnu"

%struct.http2_session_data = type { ptr, ptr, ptr, ptr }
%struct.http2_stream_data = type { ptr, ptr, ptr, ptr, i64, i64, i32 }
%struct.nghttp2_frame_hd = type { i64, i32, i8, i8, i8 }
%struct.nghttp2_headers = type { %struct.nghttp2_frame_hd, i64, %struct.nghttp2_priority_spec, ptr, i64, i32 }
%struct.nghttp2_priority_spec = type { i32, i32, i8 }

@stderr = external global ptr, align 8
@.str.17 = private unnamed_addr constant [3 x i8] c": \00", align 1
@.str.18 = private unnamed_addr constant [2 x i8] c"\0A\00", align 1

; Function Attrs: nounwind uwtable
define internal void @print_header(ptr noundef %0, ptr noundef %1, i64 noundef %2, ptr noundef %3, i64 noundef %4) #0 {
  %6 = alloca ptr, align 8
  %7 = alloca ptr, align 8
  %8 = alloca i64, align 8
  %9 = alloca ptr, align 8
  %10 = alloca i64, align 8
  store ptr %0, ptr %6, align 8, !tbaa !12
  store ptr %1, ptr %7, align 8, !tbaa !15
  store i64 %2, ptr %8, align 8, !tbaa !38
  store ptr %3, ptr %9, align 8, !tbaa !15
  store i64 %4, ptr %10, align 8, !tbaa !38
  %11 = load ptr, ptr %7, align 8, !tbaa !15
  %12 = load i64, ptr %8, align 8, !tbaa !38
  %13 = load ptr, ptr %6, align 8, !tbaa !12
  %14 = call i64 @fwrite(ptr noundef %11, i64 noundef 1, i64 noundef %12, ptr noundef %13)
  %15 = load ptr, ptr %6, align 8, !tbaa !12
  %16 = call i32 (ptr, ptr, ...) @fprintf(ptr noundef %15, ptr noundef @.str.17) #10
  %17 = load ptr, ptr %9, align 8, !tbaa !15
  %18 = load i64, ptr %10, align 8, !tbaa !38
  %19 = load ptr, ptr %6, align 8, !tbaa !12
  %20 = call i64 @fwrite(ptr noundef %17, i64 noundef 1, i64 noundef %18, ptr noundef %19)
  %21 = load ptr, ptr %6, align 8, !tbaa !12
  %22 = call i32 (ptr, ptr, ...) @fprintf(ptr noundef %21, ptr noundef @.str.18) #10
  ret void
}

; Function Attrs: nounwind uwtable
define internal i32 @on_header_callback(ptr noundef %0, ptr noundef %1, ptr noundef %2, i64 noundef %3, ptr noundef %4, i64 noundef %5, i8 noundef zeroext %6, ptr noundef %7) #0 {
  %9 = alloca ptr, align 8
  %10 = alloca ptr, align 8
  %11 = alloca ptr, align 8
  %12 = alloca i64, align 8
  %13 = alloca ptr, align 8
  %14 = alloca i64, align 8
  %15 = alloca i8, align 1
  %16 = alloca ptr, align 8
  %17 = alloca ptr, align 8
  store ptr %0, ptr %9, align 8, !tbaa !63
  store ptr %1, ptr %10, align 8, !tbaa !29
  store ptr %2, ptr %11, align 8, !tbaa !15
  store i64 %3, ptr %12, align 8, !tbaa !38
  store ptr %4, ptr %13, align 8, !tbaa !15
  store i64 %5, ptr %14, align 8, !tbaa !38
  store i8 %6, ptr %15, align 1, !tbaa !14
  store ptr %7, ptr %16, align 8, !tbaa !29
  call void @llvm.lifetime.start.p0(i64 8, ptr %17) #10
  %18 = load ptr, ptr %16, align 8, !tbaa !29
  store ptr %18, ptr %17, align 8, !tbaa !29
  %19 = load ptr, ptr %10, align 8, !tbaa !29
  %20 = getelementptr inbounds nuw %struct.nghttp2_frame_hd, ptr %19, i32 0, i32 2
  %21 = load i8, ptr %20, align 4, !tbaa !14
  %22 = zext i8 %21 to i32
  switch i32 %22, label %45 [
    i32 1, label %23
  ]

23:                                               ; preds = %8
  %24 = load ptr, ptr %10, align 8, !tbaa !29
  %25 = getelementptr inbounds nuw %struct.nghttp2_headers, ptr %24, i32 0, i32 5
  %26 = load i32, ptr %25, align 8, !tbaa !14
  %27 = icmp eq i32 %26, 1
  br i1 %27, label %28, label %44

28:                                               ; preds = %23
  %29 = load ptr, ptr %17, align 8, !tbaa !29
  %30 = getelementptr inbounds nuw %struct.http2_session_data, ptr %29, i32 0, i32 3
  %31 = load ptr, ptr %30, align 8, !tbaa !30
  %32 = getelementptr inbounds nuw %struct.http2_stream_data, ptr %31, i32 0, i32 6
  %33 = load i32, ptr %32, align 8, !tbaa !43
  %34 = load ptr, ptr %10, align 8, !tbaa !29
  %35 = getelementptr inbounds nuw %struct.nghttp2_frame_hd, ptr %34, i32 0, i32 1
  %36 = load i32, ptr %35, align 8, !tbaa !14
  %37 = icmp eq i32 %33, %36
  br i1 %37, label %38, label %44

38:                                               ; preds = %28
  %39 = load ptr, ptr @stderr, align 8, !tbaa !12
  %40 = load ptr, ptr %11, align 8, !tbaa !15
  %41 = load i64, ptr %12, align 8, !tbaa !38
  %42 = load ptr, ptr %13, align 8, !tbaa !15
  %43 = load i64, ptr %14, align 8, !tbaa !38
  call void @print_header(ptr noundef %39, ptr noundef %40, i64 noundef %41, ptr noundef %42, i64 noundef %43)
  br label %45

44:                                               ; preds = %28, %23
  br label %45

45:                                               ; preds = %44, %8, %38
  call void @llvm.lifetime.end.p0(i64 8, ptr %17) #10
  ret i32 0
}