; Function Attrs: nofree nounwind uwtable
define internal noundef i32 @on_header_callback(ptr readnone captures(none) %0, ptr noundef readonly captures(none) %1, ptr noundef captures(none) %2, i64 noundef %3, ptr noundef captures(none) %4, i64 noundef %5, i8 zeroext %6, ptr noundef readonly captures(none) %7) #14 {
  %9 = getelementptr inbounds nuw i8, ptr %1, i64 12
  %10 = load i8, ptr %9, align 4, !tbaa !9
  %cond = icmp eq i8 %10, 1
  br i1 %cond, label %11, label %28

11:                                               ; preds = %8
  %12 = getelementptr inbounds nuw i8, ptr %1, i64 56
  %13 = load i32, ptr %12, align 8, !tbaa !9
  %14 = icmp eq i32 %13, 1
  br i1 %14, label %15, label %28

15:                                               ; preds = %11
  %16 = getelementptr inbounds nuw i8, ptr %7, i64 24
  %17 = load ptr, ptr %16, align 8, !tbaa !35
  %18 = getelementptr inbounds nuw i8, ptr %17, i64 48
  %19 = load i32, ptr %18, align 8, !tbaa !29
  %20 = getelementptr inbounds nuw i8, ptr %1, i64 8
  %21 = load i32, ptr %20, align 8, !tbaa !9
  %22 = icmp eq i32 %19, %21
  br i1 %22, label %23, label %28

23:                                               ; preds = %15
  %24 = load ptr, ptr @stderr, align 8, !tbaa !4
  %25 = tail call i64 @fwrite(ptr noundef %2, i64 noundef 1, i64 noundef %3, ptr noundef %24) #19
  %26 = tail call i64 @fwrite(ptr nonnull @.str.17, i64 2, i64 1, ptr %24) #19
  %27 = tail call i64 @fwrite(ptr noundef %4, i64 noundef 1, i64 noundef %5, ptr noundef %24) #19
  %fputc.i = tail call i32 @fputc(i32 10, ptr %24)
  br label %28

28:                                               ; preds = %11, %15, %8, %23
  ret i32 0
}